target datalayout = "e-m:e-p270:32:32-p271:32:32-p272:64:64-i64:64-i128:128-f80:128-n8:16:32:64-S128"
target triple = "x86_64-pc-linux-gnu"

%"struct.duckdb_yyjson::yyjson_alc" = type { ptr, ptr, ptr, ptr }
%"struct.duckdb_yyjson::yyjson_str_pool" = type { ptr, ptr, i64, i64, ptr }
%"struct.duckdb_yyjson::yyjson_val_pool" = type { ptr, ptr, i64, i64, ptr }
%"struct.duckdb_yyjson::yyjson_mut_doc" = type { ptr, %"struct.duckdb_yyjson::yyjson_alc", %"struct.duckdb_yyjson::yyjson_str_pool", %"struct.duckdb_yyjson::yyjson_val_pool" }

; Function Attrs: mustprogress uwtable
define noundef ptr @_ZN13duckdb_yyjson24yyjson_mut_doc_imut_copyEPNS_14yyjson_mut_docEPKNS_10yyjson_alcE(ptr noundef %0, ptr noundef %1) #1 {
  %3 = alloca ptr, align 8
  %4 = alloca ptr, align 8
  %5 = alloca ptr, align 8
  store ptr %0, ptr %4, align 8, !tbaa !71
  store ptr %1, ptr %5, align 8, !tbaa !3
  %6 = load ptr, ptr %4, align 8, !tbaa !71
  %7 = icmp ne ptr %6, null
  br i1 %7, label %9, label %8

8:                                                ; preds = %2
  store ptr null, ptr %3, align 8
  br label %15

9:                                                ; preds = %2
  %10 = load ptr, ptr %4, align 8, !tbaa !71
  %11 = getelementptr inbounds nuw %"struct.duckdb_yyjson::yyjson_mut_doc", ptr %10, i32 0, i32 0
  %12 = load ptr, ptr %11, align 8, !tbaa !97
  %13 = load ptr, ptr %5, align 8, !tbaa !3
  %14 = call noundef ptr @_ZN13duckdb_yyjson24yyjson_mut_val_imut_copyEPNS_14yyjson_mut_valEPKNS_10yyjson_alcE(ptr noundef %12, ptr noundef %13)
  store ptr %14, ptr %3, align 8
  br label %15

15:                                               ; preds = %9, %8
  %16 = load ptr, ptr %3, align 8
  ret ptr %16
}