; Function Attrs: mustprogress uwtable
define noundef ptr @_ZN13duckdb_yyjson24yyjson_mut_doc_imut_copyEPNS_14yyjson_mut_docEPKNS_10yyjson_alcE(ptr noundef readonly captures(address_is_null) %0, ptr noundef captures(address_is_null) %1) local_unnamed_addr #10 {
  %.not = icmp eq ptr %0, null
  br i1 %.not, label %6, label %3

3:                                                ; preds = %2
  %4 = load ptr, ptr %0, align 8, !tbaa !72
  %5 = tail call noundef ptr @_ZN13duckdb_yyjson24yyjson_mut_val_imut_copyEPNS_14yyjson_mut_valEPKNS_10yyjson_alcE(ptr noundef %4, ptr noundef %1)
  br label %6

6:                                                ; preds = %2, %3
  %.0 = phi ptr [ %5, %3 ], [ null, %2 ]
  ret ptr %.0
}